target datalayout = "e-m:e-p270:32:32-p271:32:32-p272:64:64-i64:64-i128:128-f80:128-n8:16:32:64-S128"
target triple = "x86_64-pc-linux-gnu"

@hf_kafka_topic_name = internal global i32 0, align 4
@.str.558 = private unnamed_addr constant [6 x i8] c"Topic\00", align 1
@ett_kafka_topic = internal global i32 0, align 4

; Function Attrs: null_pointer_is_valid sspstrong uwtable
define internal i32 @dissect_kafka_offsets_response_topic(ptr noundef %0, ptr noundef %1, ptr noundef %2, i32 noundef %3, i16 noundef signext %4) #0 {
  %6 = alloca ptr, align 8
  %7 = alloca ptr, align 8
  %8 = alloca ptr, align 8
  %9 = alloca i32, align 4
  %10 = alloca i16, align 2
  %11 = alloca ptr, align 8
  %12 = alloca ptr, align 8
  store ptr %0, ptr %6, align 8
  store ptr %1, ptr %7, align 8
  store ptr %2, ptr %8, align 8
  store i32 %3, ptr %9, align 4
  store i16 %4, ptr %10, align 2
  call void @llvm.lifetime.start.p0(i64 8, ptr %11) #12
  call void @llvm.lifetime.start.p0(i64 8, ptr %12) #12
  %13 = load ptr, ptr %8, align 8
  %14 = load ptr, ptr %6, align 8
  %15 = load i32, ptr %9, align 4
  %16 = load i32, ptr @ett_kafka_topic, align 4
  %17 = call ptr @proto_tree_add_subtree(ptr noundef %13, ptr noundef %14, i32 noundef %15, i32 noundef -1, i32 noundef %16, ptr noundef %11, ptr noundef @.str.558)
  store ptr %17, ptr %12, align 8
  %18 = load ptr, ptr %12, align 8
  %19 = load i32, ptr @hf_kafka_topic_name, align 4
  %20 = load ptr, ptr %6, align 8
  %21 = load ptr, ptr %7, align 8
  %22 = load i32, ptr %9, align 4
  %23 = load i16, ptr %10, align 2
  %24 = sext i16 %23 to i32
  %25 = icmp sge i32 %24, 6
  %26 = zext i1 %25 to i32
  %27 = call i32 @dissect_kafka_string(ptr noundef %18, i32 noundef %19, ptr noundef %20, ptr noundef %21, i32 noundef %22, i32 noundef %26, ptr noundef null, ptr noundef null)
  store i32 %27, ptr %9, align 4
  %28 = load ptr, ptr %12, align 8
  %29 = load ptr, ptr %6, align 8
  %30 = load ptr, ptr %7, align 8
  %31 = load i32, ptr %9, align 4
  %32 = load i16, ptr %10, align 2
  %33 = sext i16 %32 to i32
  %34 = icmp sge i32 %33, 6
  %35 = zext i1 %34 to i32
  %36 = load i16, ptr %10, align 2
  %37 = call i32 @dissect_kafka_array(ptr noundef %28, ptr noundef %29, ptr noundef %30, i32 noundef %31, i32 noundef %35, i16 noundef signext %36, ptr noundef @dissect_kafka_offsets_response_partition, ptr noundef null)
  store i32 %37, ptr %9, align 4
  %38 = load i16, ptr %10, align 2
  %39 = sext i16 %38 to i32
  %40 = icmp sge i32 %39, 6
  br i1 %40, label %41, label %47

41:                                               ; preds = %5
  %42 = load ptr, ptr %6, align 8
  %43 = load ptr, ptr %7, align 8
  %44 = load ptr, ptr %12, align 8
  %45 = load i32, ptr %9, align 4
  %46 = call i32 @dissect_kafka_tagged_fields(ptr noundef %42, ptr noundef %43, ptr noundef %44, i32 noundef %45, i16 noundef signext 0)
  store i32 %46, ptr %9, align 4
  br label %47

47:                                               ; preds = %41, %5
  %48 = load ptr, ptr %11, align 8
  %49 = load ptr, ptr %6, align 8
  %50 = load i32, ptr %9, align 4
  call void @proto_item_set_end(ptr noundef %48, ptr noundef %49, i32 noundef %50)
  %51 = load i32, ptr %9, align 4
  call void @llvm.lifetime.end.p0(i64 8, ptr %12) #12
  call void @llvm.lifetime.end.p0(i64 8, ptr %11) #12
  ret i32 %51
}