; Function Attrs: null_pointer_is_valid sspstrong uwtable
define internal noundef i32 @dissect_kafka_offsets_response_topic(ptr noundef %0, ptr noundef %1, ptr noundef %2, i32 noundef %3, i16 noundef signext %4) #0 {
  %6 = alloca ptr, align 8
  call void @llvm.lifetime.start.p0(i64 8, ptr nonnull %6) #9
  %7 = load i32, ptr @ett_kafka_topic, align 4
  %8 = call ptr @proto_tree_add_subtree(ptr noundef %2, ptr noundef %0, i32 noundef %3, i32 noundef -1, i32 noundef %7, ptr noundef nonnull %6, ptr noundef nonnull @.str.558)
  %9 = load i32, ptr @hf_kafka_topic_name, align 4
  %10 = icmp sgt i16 %4, 5
  %11 = zext i1 %10 to i32
  %12 = call fastcc i32 @dissect_kafka_string(ptr noundef %8, i32 noundef %9, ptr noundef %0, ptr noundef %1, i32 noundef %3, i32 noundef %11, ptr noundef null, ptr noundef null)
  %13 = call fastcc i32 @dissect_kafka_array(ptr noundef %8, ptr noundef %0, ptr noundef %1, i32 noundef %12, i32 noundef %11, i16 noundef signext %4, ptr noundef nonnull @dissect_kafka_offsets_response_partition, ptr noundef null)
  br i1 %10, label %14, label %16

14:                                               ; preds = %5
  %15 = call fastcc i32 @dissect_kafka_tagged_fields(ptr noundef %0, ptr noundef %1, ptr noundef %8, i32 noundef %13)
  br label %16

16:                                               ; preds = %14, %5
  %.0 = phi i32 [ %15, %14 ], [ %13, %5 ]
  %17 = load ptr, ptr %6, align 8
  call void @proto_item_set_end(ptr noundef %17, ptr noundef %0, i32 noundef %.0)
  call void @llvm.lifetime.end.p0(i64 8, ptr nonnull %6) #9
  ret i32 %.0
}